Archive member included to satisfy reference by file (symbol)

c:/devkitPro/libnds/lib\libnds9.a(keys.o)
                              main.o (scanKeys)
c:/devkitPro/libnds/lib\libnds9.a(initSystem.o)
                              c:/devkitpro/devkitarm/bin/../lib/gcc/arm-none-eabi/4.9.2/../../../../arm-none-eabi/lib/ds_arm9_crt0.o (initSystem)
c:/devkitPro/libnds/lib\libnds9.a(fifosystem.o)
                              c:/devkitPro/libnds/lib\libnds9.a(initSystem.o) (fifoSetValue32Handler)
c:/devkitPro/libnds/lib\libnds9.a(libnds_exit.arm.o)
                              c:/devkitpro/devkitarm/bin/../lib/gcc/arm-none-eabi/4.9.2/../../../../arm-none-eabi/lib/ds_arm9_crt0.o (__libnds_exit)
c:/devkitPro/libnds/lib\libnds9.a(interrupts.o)
                              c:/devkitPro/libnds/lib\libnds9.a(fifosystem.o) (irqSet)
c:/devkitPro/libnds/lib\libnds9.a(mpu_setup.o)
                              c:/devkitpro/devkitarm/bin/../lib/gcc/arm-none-eabi/4.9.2/../../../../arm-none-eabi/lib/ds_arm9_crt0.o (__libnds_mpu_setup)
c:/devkitPro/libnds/lib\libnds9.a(swiSoftReset.o)
                              c:/devkitPro/libnds/lib\libnds9.a(fifosystem.o) (swiSoftReset)
c:/devkitPro/libnds/lib\libnds9.a(biosCalls.o)
                              c:/devkitPro/libnds/lib\libnds9.a(fifosystem.o) (swiIntrWait)
c:/devkitPro/libnds/lib\libnds9.a(interruptDispatcher.o)
                              c:/devkitPro/libnds/lib\libnds9.a(interrupts.o) (IntrMain)
c:/devkitPro/libnds/lib\libnds9.a(system.o)
                              c:/devkitPro/libnds/lib\libnds9.a(initSystem.o) (systemMsgHandler)
c:/devkitPro/libnds/lib\libnds9.a(video.o)
                              c:/devkitPro/libnds/lib\libnds9.a(initSystem.o) (vramDefault)
c:/devkitPro/libnds/lib\libnds9.a(timeSupport.o)
                              c:/devkitPro/libnds/lib\libnds9.a(initSystem.o) (__libnds_gtod)
c:/devkitpro/devkitarm/bin/../lib/gcc/arm-none-eabi/4.9.2\libgcc.a(_divsi3.o)
                              ball.o (__aeabi_idiv)
c:/devkitpro/devkitarm/bin/../lib/gcc/arm-none-eabi/4.9.2\libgcc.a(_dvmd_tls.o)
                              c:/devkitpro/devkitarm/bin/../lib/gcc/arm-none-eabi/4.9.2\libgcc.a(_divsi3.o) (__aeabi_idiv0)
c:/devkitpro/devkitarm/bin/../lib/gcc/arm-none-eabi/4.9.2/../../../../arm-none-eabi/lib\libg.a(lib_a-init.o)
                              c:/devkitpro/devkitarm/bin/../lib/gcc/arm-none-eabi/4.9.2/../../../../arm-none-eabi/lib/ds_arm9_crt0.o (__libc_init_array)
c:/devkitpro/devkitarm/bin/../lib/gcc/arm-none-eabi/4.9.2/../../../../arm-none-eabi/lib\libg.a(lib_a-memcpy.o)
                              c:/devkitPro/libnds/lib\libnds9.a(fifosystem.o) (memcpy)
c:/devkitpro/devkitarm/bin/../lib/gcc/arm-none-eabi/4.9.2/../../../../arm-none-eabi/lib\libg.a(lib_a-memset.o)
                              main.o (memset)
c:/devkitpro/devkitarm/bin/../lib/gcc/arm-none-eabi/4.9.2/../../../../arm-none-eabi/lib\libsysbase.a(malloc_vars.o)
                              c:/devkitpro/devkitarm/bin/../lib/gcc/arm-none-eabi/4.9.2/../../../../arm-none-eabi/lib/ds_arm9_crt0.o (fake_heap_start)
c:/devkitpro/devkitarm/bin/../lib/gcc/arm-none-eabi/4.9.2/../../../../arm-none-eabi/lib\libsysbase.a(build_argv.o)
                              c:/devkitpro/devkitarm/bin/../lib/gcc/arm-none-eabi/4.9.2/../../../../arm-none-eabi/lib/ds_arm9_crt0.o (build_argv)
c:/devkitpro/devkitarm/bin/../lib/gcc/arm-none-eabi/4.9.2/../../../../arm-none-eabi/lib\libsysbase.a(syscall_support.o)
                              c:/devkitPro/libnds/lib\libnds9.a(initSystem.o) (__syscalls)

Allocating common symbols
Common symbol       size              file

fifo_datamsg_data   0x40              c:/devkitPro/libnds/lib\libnds9.a(fifosystem.o)
__dsimode           0x1               c:/devkitPro/libnds/lib\libnds9.a(initSystem.o)
fifo_buffer         0x800             c:/devkitPro/libnds/lib\libnds9.a(fifosystem.o)
g_ball              0x18              main.o
g_camera_y          0x4               main.o
fifo_value32_func   0x40              c:/devkitPro/libnds/lib\libnds9.a(fifosystem.o)
fifo_address_func   0x40              c:/devkitPro/libnds/lib\libnds9.a(fifosystem.o)
fifo_value32_data   0x40              c:/devkitPro/libnds/lib\libnds9.a(fifosystem.o)
fifo_value32_queue  0x40              c:/devkitPro/libnds/lib\libnds9.a(fifosystem.o)
fifo_data_queue     0x40              c:/devkitPro/libnds/lib\libnds9.a(fifosystem.o)
g_camera_x          0x4               main.o
punixTime           0x4               c:/devkitPro/libnds/lib\libnds9.a(timeSupport.o)
fifo_address_data   0x40              c:/devkitPro/libnds/lib\libnds9.a(fifosystem.o)
fifo_datamsg_func   0x40              c:/devkitPro/libnds/lib\libnds9.a(fifosystem.o)
fifo_address_queue  0x40              c:/devkitPro/libnds/lib\libnds9.a(fifosystem.o)

Memory Configuration

Name             Origin             Length             Attributes
rom              0x08000000         0x02000000
ewram            0x02000000         0x003ff000
dtcm             0x0b000000         0x00004000
vectors          0x01000000         0x00000100
itcm             0x01000100         0x00007f00
*default*        0x00000000         0xffffffff

Linker script and memory map

                0x01000000                __vectors_start = ORIGIN (vectors)
                0x01000100                __itcm_start = ORIGIN (itcm)
                0x023ff000                __ewram_end = (ORIGIN (ewram) + 0x3ff000)
                0x023ff000                __eheap_end = (ORIGIN (ewram) + 0x3ff000)
                0x0b000000                __dtcm_start = ORIGIN (dtcm)
                0x0b004000                __dtcm_top = (ORIGIN (dtcm) + 0x4000)
                0x0b003ff8                __irq_flags = (__dtcm_top - 0x8)
                0x0b003ffc                __irq_vector = (__dtcm_top - 0x4)
                0x0b003f00                __sp_svc = (__dtcm_top - 0x100)
                0x0b003e00                __sp_irq = (__sp_svc - 0x100)
                0x0b003d00                __sp_usr = (__sp_irq - 0x100)

.init           0x02000000      0x248
                0x02000000                __text_start = .
 *(.init)
 .init          0x02000000      0x230 c:/devkitpro/devkitarm/bin/../lib/gcc/arm-none-eabi/4.9.2/../../../../arm-none-eabi/lib/ds_arm9_crt0.o
                0x02000000                _start
 .init          0x02000230        0xc c:/devkitpro/devkitarm/bin/../lib/gcc/arm-none-eabi/4.9.2/crti.o
                0x02000230                _init
 .init          0x0200023c        0xc c:/devkitpro/devkitarm/bin/../lib/gcc/arm-none-eabi/4.9.2/crtn.o
                0x02000248                . = ALIGN (0x4)

.plt
 *(.plt)

.text           0x02000250     0x2568
 *(EXCLUDE_FILE(*.itcm*) .text)
 .text          0x02000250        0x0 c:/devkitpro/devkitarm/bin/../lib/gcc/arm-none-eabi/4.9.2/../../../../arm-none-eabi/lib/ds_arm9_crt0.o
 .text          0x02000250        0x0 c:/devkitpro/devkitarm/bin/../lib/gcc/arm-none-eabi/4.9.2/crti.o
 .text          0x02000250      0x108 c:/devkitpro/devkitarm/bin/../lib/gcc/arm-none-eabi/4.9.2/crtbegin.o
 .text          0x02000358        0x0 gfx_ball.o
 .text          0x02000358        0x0 gfx_brick.o
 .text          0x02000358        0x0 gfx_gradient.o
 .text          0x02000358      0x170 ball.o
                0x02000358                ballUpdate
                0x02000410                ballRender
 .text          0x020004c8      0x55c main.o
                0x020004c8                updateCamera
                0x02000518                setupGraphics
                0x020008a0                setupInterrupts
                0x020008b4                resetBall
                0x020008e4                updateGraphics
                0x0200091c                processInput
                0x02000980                processLogic
 .text          0x02000a24       0xf4 c:/devkitPro/libnds/lib\libnds9.a(keys.o)
                0x02000a24                scanKeys
                0x02000a90                keysHeld
                0x02000a9c                keysDown
                0x02000aac                keysDownRepeat
                0x02000abc                keysSetRepeat
                0x02000ad4                keysUp
                0x02000ae4                keysCurrent
 .text          0x02000b18      0x14c c:/devkitPro/libnds/lib\libnds9.a(initSystem.o)
                0x02000b18                initSystem
 .text          0x02000c64      0xcb8 c:/devkitPro/libnds/lib\libnds9.a(fifosystem.o)
                0x02000f28                fifoSetValue32Handler
                0x02000f9c                fifoSendAddress
                0x02000fc8                fifoSendValue32
                0x02001004                fifoSendDatamsg
                0x02001078                fifoGetAddress
                0x020010e4                fifoSetAddressHandler
                0x02001158                fifoGetValue32
                0x0200116c                fifoGetDatamsg
                0x02001620                fifoSetDatamsgHandler
                0x020016b4                fifoCheckAddress
                0x020016d8                fifoCheckDatamsg
                0x020016fc                fifoCheckDatamsgLength
                0x0200172c                fifoCheckValue32
                0x02001750                fifoInit
 .text          0x0200191c       0x5c c:/devkitPro/libnds/lib\libnds9.a(libnds_exit.arm.o)
                0x0200191c                systemErrorExit
                0x02001920                __libnds_exit
 .text          0x02001978      0x1ec c:/devkitPro/libnds/lib\libnds9.a(interrupts.o)
                0x02001978                irqDummy
                0x0200197c                irqSet
                0x020019e8                irqInit
                0x02001a34                irqInitHandler
                0x02001a64                irqEnable
                0x02001ac8                irqDisable
                0x02001b2c                irqClear
 .text          0x02001b64      0x1b4 c:/devkitPro/libnds/lib\libnds9.a(mpu_setup.o)
                0x02001b64                __libnds_mpu_setup
                0x02001ca4                memCached
                0x02001cbc                memUncached
 *fill*         0x02001d18        0x8 ff
 .text          0x02001d20       0x30 c:/devkitPro/libnds/lib\libnds9.a(swiSoftReset.o)
                0x02001d20                swiSoftReset
 .text          0x02001d50       0x70 c:/devkitPro/libnds/lib\libnds9.a(biosCalls.o)
                0x02001d50                swiDelay
                0x02001d54                swiIntrWait
                0x02001d58                swiWaitForVBlank
                0x02001d5c                swiSleep
                0x02001d60                swiChangeSoundBias
                0x02001d64                swiDivide
                0x02001d68                swiRemainder
                0x02001d6e                swiDivMod
                0x02001d7a                swiCopy
                0x02001d7e                swiFastCopy
                0x02001d82                swiSqrt
                0x02001d86                swiCRC16
                0x02001d8a                swiIsDebugger
                0x02001d8e                swiUnpackBits
                0x02001d92                swiDecompressLZSSWram
                0x02001d96                swiDecompressLZSSVramNTR
                0x02001d9a                swiDecompressLZSSVramTWL
                0x02001d9e                swiDecompressHuffman
                0x02001da2                swiDecompressRLEWram
                0x02001da6                swiDecompressRLEVram
                0x02001daa                swiWaitForIRQ
                0x02001dae                swiDecodeDelta8
                0x02001db2                swiDecodeDelta16
                0x02001db6                swiSetHaltCR
 .text          0x02001dc0        0x0 c:/devkitPro/libnds/lib\libnds9.a(interruptDispatcher.o)
 .text          0x02001dc0      0x134 c:/devkitPro/libnds/lib\libnds9.a(system.o)
                0x02001dc0                setSDcallback
                0x02001dcc                systemMsgHandler
                0x02001e1c                systemSleep
                0x02001e34                systemValueHandler
                0x02001e70                powerOn
                0x02001e9c                powerOff
                0x02001ec4                ledBlink
                0x02001ed4                getBatteryLevel
 .text          0x02001ef4      0x1f8 c:/devkitPro/libnds/lib\libnds9.a(video.o)
                0x02001ef4                vramSetPrimaryBanks
                0x02001f38                vramSetMainBanks
                0x02001f7c                vramSetBanks_EFG
                0x02001fb4                vramRestorePrimaryBanks
                0x02001fc0                vramRestoreMainBanks
                0x02001fcc                vramRestoreBanks_EFG
                0x02001fd8                setBrightness
                0x02002018                vramDefault
 .text          0x020020ec       0x24 c:/devkitPro/libnds/lib\libnds9.a(timeSupport.o)
                0x020020ec                __libnds_gtod
 .text          0x02002110      0x148 c:/devkitpro/devkitarm/bin/../lib/gcc/arm-none-eabi/4.9.2\libgcc.a(_divsi3.o)
                0x02002110                __divsi3
                0x02002110                __aeabi_idiv
                0x02002238                __aeabi_idivmod
 .text          0x02002258        0x4 c:/devkitpro/devkitarm/bin/../lib/gcc/arm-none-eabi/4.9.2\libgcc.a(_dvmd_tls.o)
                0x02002258                __aeabi_idiv0
                0x02002258                __aeabi_ldiv0
 .text          0x0200225c        0x0 c:/devkitpro/devkitarm/bin/../lib/gcc/arm-none-eabi/4.9.2/../../../../arm-none-eabi/lib\libg.a(lib_a-init.o)
 .text          0x0200225c        0x0 c:/devkitpro/devkitarm/bin/../lib/gcc/arm-none-eabi/4.9.2/../../../../arm-none-eabi/lib\libg.a(lib_a-memcpy.o)
 .text          0x0200225c        0x0 c:/devkitpro/devkitarm/bin/../lib/gcc/arm-none-eabi/4.9.2/../../../../arm-none-eabi/lib\libg.a(lib_a-memset.o)
 .text          0x0200225c        0x0 c:/devkitpro/devkitarm/bin/../lib/gcc/arm-none-eabi/4.9.2/../../../../arm-none-eabi/lib\libsysbase.a(malloc_vars.o)
 .text          0x0200225c       0x80 c:/devkitpro/devkitarm/bin/../lib/gcc/arm-none-eabi/4.9.2/../../../../arm-none-eabi/lib\libsysbase.a(build_argv.o)
                0x0200225c                build_argv
 .text          0x020022dc      0x100 c:/devkitpro/devkitarm/bin/../lib/gcc/arm-none-eabi/4.9.2/../../../../arm-none-eabi/lib\libsysbase.a(syscall_support.o)
                0x020022dc                __libc_lock_init
                0x020022f4                __libc_lock_acquire
                0x0200230c                __libc_lock_try_acquire
                0x0200232c                __libc_lock_release
                0x02002344                __libc_lock_close
                0x0200235c                __libc_lock_init_recursive
                0x02002374                __libc_lock_acquire_recursive
                0x0200238c                __libc_lock_try_acquire_recursive
                0x020023ac                __libc_lock_release_recursive
                0x020023c4                __libc_lock_close_recursive
 .text          0x020023dc        0x0 c:/devkitpro/devkitarm/bin/../lib/gcc/arm-none-eabi/4.9.2/crtend.o
 .text          0x020023dc        0x0 c:/devkitpro/devkitarm/bin/../lib/gcc/arm-none-eabi/4.9.2/crtn.o
 *(.text.*)
 .text.startup  0x020023dc       0xfc main.o
                0x020023dc                main
 .text.__libc_init_array
                0x020024d8       0x80 c:/devkitpro/devkitarm/bin/../lib/gcc/arm-none-eabi/4.9.2/../../../../arm-none-eabi/lib\libg.a(lib_a-init.o)
                0x020024d8                __libc_init_array
 .text.memcpy   0x02002558       0xf0 c:/devkitpro/devkitarm/bin/../lib/gcc/arm-none-eabi/4.9.2/../../../../arm-none-eabi/lib\libg.a(lib_a-memcpy.o)
                0x02002558                memcpy
 .text.memset   0x02002648       0xf4 c:/devkitpro/devkitarm/bin/../lib/gcc/arm-none-eabi/4.9.2/../../../../arm-none-eabi/lib\libg.a(lib_a-memset.o)
                0x02002648                memset
 *fill*         0x0200273c        0x4 ff
 .text.memset.__stub
                0x02002740       0x60 linker stubs
 *(.stub)
 *(.gnu.warning)
 *(.gnu.linkonce.t*)
 *(.glue_7)
 .glue_7        0x020027b8        0x0 linker stubs
 *(.glue_7t)
 .glue_7t       0x020027b8        0x0 linker stubs
                0x020027b8                . = ALIGN (0x4)

.vfp11_veneer   0x020027b8        0x0
 .vfp11_veneer  0x020027b8        0x0 linker stubs

.v4_bx          0x020027b8        0x0
 .v4_bx         0x020027b8        0x0 linker stubs

.iplt           0x020027b8        0x0
 .iplt          0x020027b8        0x0 c:/devkitpro/devkitarm/bin/../lib/gcc/arm-none-eabi/4.9.2/../../../../arm-none-eabi/lib/ds_arm9_crt0.o

.fini           0x020027b8       0x18
 *(.fini)
 .fini          0x020027b8        0xc c:/devkitpro/devkitarm/bin/../lib/gcc/arm-none-eabi/4.9.2/crti.o
                0x020027b8                _fini
 .fini          0x020027c4        0xc c:/devkitpro/devkitarm/bin/../lib/gcc/arm-none-eabi/4.9.2/crtn.o
                0x020027d0                __text_end = .

.rodata         0x020027d0      0x1e8
 *(.rodata)
 .rodata        0x020027d0       0xa0 gfx_ball.o
                0x020027d0                gfx_ballTiles
                0x02002850                gfx_ballPal
 .rodata        0x02002870       0x28 gfx_brick.o
                0x02002870                gfx_brickTiles
                0x02002890                gfx_brickPal
 .rodata        0x02002898      0x120 gfx_gradient.o
                0x02002898                gfx_gradientTiles
                0x02002998                gfx_gradientPal
 *all.rodata*(*)
 *(.roda)
 *(.rodata.*)
 *(.gnu.linkonce.r*)
                0x020029b8                . = ALIGN (0x4)

.rel.dyn        0x020029b8        0x0
 .rel.iplt      0x020029b8        0x0 c:/devkitpro/devkitarm/bin/../lib/gcc/arm-none-eabi/4.9.2/../../../../arm-none-eabi/lib/ds_arm9_crt0.o

.ARM.extab
 *(.ARM.extab* .gnu.linkonce.armextab.*)
                0x020029b8                __exidx_start = .

ARM.exidx
 *(.ARM.exidx* .gnu.linkonce.armexidx.*)
                0x020029b8                __exidx_end = .
                0x020029b8                . = ALIGN (0x4)
                0x020029b8                PROVIDE (__preinit_array_start, .)

.preinit_array
 *(.preinit_array)
                0x020029b8                PROVIDE (__preinit_array_end, .)
                0x020029b8                PROVIDE (__init_array_start, .)

.init_array     0x020029b8        0x4
 *(SORT(.init_array.*))
 *(.init_array)
 .init_array    0x020029b8        0x4 c:/devkitpro/devkitarm/bin/../lib/gcc/arm-none-eabi/4.9.2/crtbegin.o
                0x020029bc                PROVIDE (__init_array_end, .)
                0x020029bc                PROVIDE (__fini_array_start, .)

.fini_array     0x020029bc        0x4
 *(.fini_array)
 .fini_array    0x020029bc        0x4 c:/devkitpro/devkitarm/bin/../lib/gcc/arm-none-eabi/4.9.2/crtbegin.o
 *(SORT(.fini_array.*))
                0x020029c0                PROVIDE (__fini_array_end, .)

.ctors          0x020029c0        0x0
 *crtbegin.o(.ctors)
 *(EXCLUDE_FILE(*crtend.o) .ctors)
 *(SORT(.ctors.*))
 *(.ctors)
                0x020029c0                . = ALIGN (0x4)

.dtors          0x020029c0        0x0
 *crtbegin.o(.dtors)
 *(EXCLUDE_FILE(*crtend.o) .dtors)
 *(SORT(.dtors.*))
 *(.dtors)
                0x020029c0                . = ALIGN (0x4)

.eh_frame       0x020029c0        0x4
 *(.eh_frame)
 .eh_frame      0x020029c0        0x0 c:/devkitpro/devkitarm/bin/../lib/gcc/arm-none-eabi/4.9.2/crtbegin.o
 .eh_frame      0x020029c0        0x4 c:/devkitpro/devkitarm/bin/../lib/gcc/arm-none-eabi/4.9.2/crtend.o
                0x020029c4                . = ALIGN (0x4)

.gcc_except_table
                0x020029c4        0x0
 *(.gcc_except_table)
                0x020029c4                . = ALIGN (0x4)

.jcr            0x020029c4        0x4
 *(.jcr)
 .jcr           0x020029c4        0x0 c:/devkitpro/devkitarm/bin/../lib/gcc/arm-none-eabi/4.9.2/crtbegin.o
 .jcr           0x020029c4        0x4 c:/devkitpro/devkitarm/bin/../lib/gcc/arm-none-eabi/4.9.2/crtend.o

.got
 *(.got.plt)
 *(.got)
 *(.rel.got)

.ewram          0x020029c8        0x0
                0x020029c8                __ewram_start = ABSOLUTE (.)
 *(.ewram)
 *ewram.*(.text)
                0x020029c8                . = ALIGN (0x4)

.data           0x020029c8       0x18
                0x020029c8                __data_start = ABSOLUTE (.)
 *(.data)
 .data          0x020029c8        0x0 c:/devkitpro/devkitarm/bin/../lib/gcc/arm-none-eabi/4.9.2/../../../../arm-none-eabi/lib/ds_arm9_crt0.o
 .data          0x020029c8        0x0 c:/devkitpro/devkitarm/bin/../lib/gcc/arm-none-eabi/4.9.2/crti.o
 .data          0x020029c8        0x4 c:/devkitpro/devkitarm/bin/../lib/gcc/arm-none-eabi/4.9.2/crtbegin.o
                0x020029c8                __dso_handle
 .data          0x020029cc        0x0 gfx_ball.o
 .data          0x020029cc        0x0 gfx_brick.o
 .data          0x020029cc        0x0 gfx_gradient.o
 .data          0x020029cc        0x0 ball.o
 .data          0x020029cc        0x0 main.o
 .data          0x020029cc        0x3 c:/devkitPro/libnds/lib\libnds9.a(keys.o)
 .data          0x020029cf        0x0 c:/devkitPro/libnds/lib\libnds9.a(initSystem.o)
 *fill*         0x020029cf        0x1 ff
 .data          0x020029d0       0x10 c:/devkitPro/libnds/lib\libnds9.a(fifosystem.o)
                0x020029d0                fifo_buffer_free
                0x020029d4                fifo_freewords
                0x020029d8                fifo_send_queue
                0x020029dc                fifo_receive_queue
 .data          0x020029e0        0x0 c:/devkitPro/libnds/lib\libnds9.a(libnds_exit.arm.o)
 .data          0x020029e0        0x0 c:/devkitPro/libnds/lib\libnds9.a(interrupts.o)
 .data          0x020029e0        0x0 c:/devkitPro/libnds/lib\libnds9.a(mpu_setup.o)
 .data          0x020029e0        0x0 c:/devkitPro/libnds/lib\libnds9.a(swiSoftReset.o)
 .data          0x020029e0        0x0 c:/devkitPro/libnds/lib\libnds9.a(biosCalls.o)
 .data          0x020029e0        0x0 c:/devkitPro/libnds/lib\libnds9.a(interruptDispatcher.o)
 .data          0x020029e0        0x0 c:/devkitPro/libnds/lib\libnds9.a(system.o)
 .data          0x020029e0        0x0 c:/devkitPro/libnds/lib\libnds9.a(video.o)
 .data          0x020029e0        0x0 c:/devkitPro/libnds/lib\libnds9.a(timeSupport.o)
 .data          0x020029e0        0x0 c:/devkitpro/devkitarm/bin/../lib/gcc/arm-none-eabi/4.9.2\libgcc.a(_divsi3.o)
 .data          0x020029e0        0x0 c:/devkitpro/devkitarm/bin/../lib/gcc/arm-none-eabi/4.9.2\libgcc.a(_dvmd_tls.o)
 .data          0x020029e0        0x0 c:/devkitpro/devkitarm/bin/../lib/gcc/arm-none-eabi/4.9.2/../../../../arm-none-eabi/lib\libg.a(lib_a-init.o)
 .data          0x020029e0        0x0 c:/devkitpro/devkitarm/bin/../lib/gcc/arm-none-eabi/4.9.2/../../../../arm-none-eabi/lib\libg.a(lib_a-memcpy.o)
 .data          0x020029e0        0x0 c:/devkitpro/devkitarm/bin/../lib/gcc/arm-none-eabi/4.9.2/../../../../arm-none-eabi/lib\libg.a(lib_a-memset.o)
 .data          0x020029e0        0x0 c:/devkitpro/devkitarm/bin/../lib/gcc/arm-none-eabi/4.9.2/../../../../arm-none-eabi/lib\libsysbase.a(malloc_vars.o)
 .data          0x020029e0        0x0 c:/devkitpro/devkitarm/bin/../lib/gcc/arm-none-eabi/4.9.2/../../../../arm-none-eabi/lib\libsysbase.a(build_argv.o)
 .data          0x020029e0        0x0 c:/devkitpro/devkitarm/bin/../lib/gcc/arm-none-eabi/4.9.2/../../../../arm-none-eabi/lib\libsysbase.a(syscall_support.o)
 .data          0x020029e0        0x0 c:/devkitpro/devkitarm/bin/../lib/gcc/arm-none-eabi/4.9.2/crtend.o
 .data          0x020029e0        0x0 c:/devkitpro/devkitarm/bin/../lib/gcc/arm-none-eabi/4.9.2/crtn.o
 *(.data.*)
 *(.gnu.linkonce.d*)
                0x020029e0                . = ALIGN (0x4)
                0x020029e0                __data_end = ABSOLUTE (.)
                0x020029e0                __dtcm_lma = .
                0x020029e0                __bss_vma = .

.igot.plt       0x020029e0        0x0
 .igot.plt      0x020029e0        0x0 c:/devkitpro/devkitarm/bin/../lib/gcc/arm-none-eabi/4.9.2/../../../../arm-none-eabi/lib/ds_arm9_crt0.o

.tm_clone_table
                0x020029e0        0x0
 .tm_clone_table
                0x020029e0        0x0 c:/devkitpro/devkitarm/bin/../lib/gcc/arm-none-eabi/4.9.2/crtbegin.o
 .tm_clone_table
                0x020029e0        0x0 c:/devkitpro/devkitarm/bin/../lib/gcc/arm-none-eabi/4.9.2/crtend.o

.dtcm           0x0b000000        0x0 load address 0x020029e0
 *(.dtcm)
 *(.dtcm.*)
                0x0b000000                . = ALIGN (0x4)
                0x0b000000                __dtcm_end = ABSOLUTE (.)
                0x020029e0                __itcm_lma = (__dtcm_lma + SIZEOF (.dtcm))

.itcm           0x01000100      0x194 load address 0x020029e0
 *(.itcm)
 .itcm          0x01000100       0xc8 c:/devkitPro/libnds/lib\libnds9.a(interrupts.o)
                0x01000100                irqTable
 .itcm          0x010001c8       0xcc c:/devkitPro/libnds/lib\libnds9.a(interruptDispatcher.o)
                0x010001c8                IntrMain
 *itcm.*(.text)
                0x01000294                . = ALIGN (0x4)
                0x01000294                __itcm_end = ABSOLUTE (.)
                0x02002b74                __vectors_lma = (__itcm_lma + SIZEOF (.itcm))

.vectors        0x01000000        0x0 load address 0x02002b74
 *(.vectors)
 *vectors.*(.text)
                0x01000000                . = ALIGN (0x4)
                0x01000000                __vectors_end = ABSOLUTE (.)

.sbss           0x0b000000        0x0
                0x0b000000                __sbss_start = ABSOLUTE (.)
                0x0b000000                __sbss_start__ = ABSOLUTE (.)
 *(.sbss)
                0x0b000000                . = ALIGN (0x4)
                0x0b000000                __sbss_end = ABSOLUTE (.)

.bss            0x020029e0      0xae0
                0x020029e0                __bss_start = ABSOLUTE (.)
                0x020029e0                __bss_start__ = ABSOLUTE (.)
 *(.dynbss)
 *(.gnu.linkonce.b*)
 *(.bss*)
 .bss           0x020029e0        0x0 c:/devkitpro/devkitarm/bin/../lib/gcc/arm-none-eabi/4.9.2/../../../../arm-none-eabi/lib/ds_arm9_crt0.o
 .bss           0x020029e0        0x0 c:/devkitpro/devkitarm/bin/../lib/gcc/arm-none-eabi/4.9.2/crti.o
 .bss           0x020029e0       0x1c c:/devkitpro/devkitarm/bin/../lib/gcc/arm-none-eabi/4.9.2/crtbegin.o
 .bss           0x020029fc        0x0 gfx_ball.o
 .bss           0x020029fc        0x0 gfx_brick.o
 .bss           0x020029fc        0x0 gfx_gradient.o
 .bss           0x020029fc        0x0 ball.o
 .bss           0x020029fc        0x0 main.o
 .bss           0x020029fc        0x6 c:/devkitPro/libnds/lib\libnds9.a(keys.o)
 .bss           0x02002a02        0x0 c:/devkitPro/libnds/lib\libnds9.a(initSystem.o)
 *fill*         0x02002a02        0x2 
 .bss           0x02002a04        0x8 c:/devkitPro/libnds/lib\libnds9.a(fifosystem.o)
                0x02002a08                processing
 .bss           0x02002a0c        0x0 c:/devkitPro/libnds/lib\libnds9.a(libnds_exit.arm.o)
 .bss           0x02002a0c        0x0 c:/devkitPro/libnds/lib\libnds9.a(interrupts.o)
 .bss           0x02002a0c        0x0 c:/devkitPro/libnds/lib\libnds9.a(mpu_setup.o)
 .bss           0x02002a0c        0x0 c:/devkitPro/libnds/lib\libnds9.a(swiSoftReset.o)
 .bss           0x02002a0c        0x0 c:/devkitPro/libnds/lib\libnds9.a(biosCalls.o)
 .bss           0x02002a0c        0x0 c:/devkitPro/libnds/lib\libnds9.a(interruptDispatcher.o)
 .bss           0x02002a0c        0x4 c:/devkitPro/libnds/lib\libnds9.a(system.o)
 .bss           0x02002a10        0x0 c:/devkitPro/libnds/lib\libnds9.a(video.o)
 .bss           0x02002a10        0x0 c:/devkitPro/libnds/lib\libnds9.a(timeSupport.o)
 .bss           0x02002a10        0x0 c:/devkitpro/devkitarm/bin/../lib/gcc/arm-none-eabi/4.9.2\libgcc.a(_divsi3.o)
 .bss           0x02002a10        0x0 c:/devkitpro/devkitarm/bin/../lib/gcc/arm-none-eabi/4.9.2\libgcc.a(_dvmd_tls.o)
 .bss           0x02002a10        0x0 c:/devkitpro/devkitarm/bin/../lib/gcc/arm-none-eabi/4.9.2/../../../../arm-none-eabi/lib\libg.a(lib_a-init.o)
 .bss           0x02002a10        0x0 c:/devkitpro/devkitarm/bin/../lib/gcc/arm-none-eabi/4.9.2/../../../../arm-none-eabi/lib\libg.a(lib_a-memcpy.o)
 .bss           0x02002a10        0x0 c:/devkitpro/devkitarm/bin/../lib/gcc/arm-none-eabi/4.9.2/../../../../arm-none-eabi/lib\libg.a(lib_a-memset.o)
 .bss           0x02002a10        0x8 c:/devkitpro/devkitarm/bin/../lib/gcc/arm-none-eabi/4.9.2/../../../../arm-none-eabi/lib\libsysbase.a(malloc_vars.o)
                0x02002a10                fake_heap_start
                0x02002a14                fake_heap_end
 .bss           0x02002a18        0x0 c:/devkitpro/devkitarm/bin/../lib/gcc/arm-none-eabi/4.9.2/../../../../arm-none-eabi/lib\libsysbase.a(build_argv.o)
 .bss           0x02002a18       0x40 c:/devkitpro/devkitarm/bin/../lib/gcc/arm-none-eabi/4.9.2/../../../../arm-none-eabi/lib\libsysbase.a(syscall_support.o)
                0x02002a18                __syscalls
 .bss           0x02002a58        0x0 c:/devkitpro/devkitarm/bin/../lib/gcc/arm-none-eabi/4.9.2/crtend.o
 .bss           0x02002a58        0x0 c:/devkitpro/devkitarm/bin/../lib/gcc/arm-none-eabi/4.9.2/crtn.o
 *(COMMON)
 COMMON         0x02002a58       0x20 main.o
                0x02002a58                g_ball
                0x02002a70                g_camera_y
                0x02002a74                g_camera_x
 COMMON         0x02002a78        0x1 c:/devkitPro/libnds/lib\libnds9.a(initSystem.o)
                0x02002a78                __dsimode
 *fill*         0x02002a79        0x3 
 COMMON         0x02002a7c      0xa40 c:/devkitPro/libnds/lib\libnds9.a(fifosystem.o)
                0x02002a7c                fifo_datamsg_data
                0x02002abc                fifo_buffer
                0x020032bc                fifo_value32_func
                0x020032fc                fifo_address_func
                0x0200333c                fifo_value32_data
                0x0200337c                fifo_value32_queue
                0x020033bc                fifo_data_queue
                0x020033fc                fifo_address_data
                0x0200343c                fifo_datamsg_func
                0x0200347c                fifo_address_queue
 COMMON         0x020034bc        0x4 c:/devkitPro/libnds/lib\libnds9.a(timeSupport.o)
                0x020034bc                punixTime
                0x020034c0                . = ALIGN (0x4)
                0x020034c0                __bss_end__ = ABSOLUTE (.)
                0x020034c0                __end__ = ABSOLUTE (.)

.stab
 *(.stab)

.stabstr
 *(.stabstr)

.stab.excl
 *(.stab.excl)

.stab.exclstr
 *(.stab.exclstr)

.stab.index
 *(.stab.index)

.stab.indexstr
 *(.stab.indexstr)

.comment        0x00000000       0x22
 *(.comment)
 .comment       0x00000000       0x22 c:/devkitpro/devkitarm/bin/../lib/gcc/arm-none-eabi/4.9.2/crtbegin.o
                                 0x23 (size before relaxing)
 .comment       0x00000022       0x23 ball.o
 .comment       0x00000022       0x23 main.o
 .comment       0x00000022       0x23 c:/devkitPro/libnds/lib\libnds9.a(keys.o)
 .comment       0x00000022       0x23 c:/devkitPro/libnds/lib\libnds9.a(initSystem.o)
 .comment       0x00000022       0x23 c:/devkitPro/libnds/lib\libnds9.a(fifosystem.o)
 .comment       0x00000022       0x23 c:/devkitPro/libnds/lib\libnds9.a(libnds_exit.arm.o)
 .comment       0x00000022       0x23 c:/devkitPro/libnds/lib\libnds9.a(interrupts.o)
 .comment       0x00000022       0x23 c:/devkitPro/libnds/lib\libnds9.a(system.o)
 .comment       0x00000022       0x23 c:/devkitPro/libnds/lib\libnds9.a(video.o)
 .comment       0x00000022       0x23 c:/devkitPro/libnds/lib\libnds9.a(timeSupport.o)
 .comment       0x00000022       0x23 c:/devkitpro/devkitarm/bin/../lib/gcc/arm-none-eabi/4.9.2/../../../../arm-none-eabi/lib\libg.a(lib_a-init.o)
 .comment       0x00000022       0x23 c:/devkitpro/devkitarm/bin/../lib/gcc/arm-none-eabi/4.9.2/../../../../arm-none-eabi/lib\libg.a(lib_a-memcpy.o)
 .comment       0x00000022       0x23 c:/devkitpro/devkitarm/bin/../lib/gcc/arm-none-eabi/4.9.2/../../../../arm-none-eabi/lib\libg.a(lib_a-memset.o)
 .comment       0x00000022       0x23 c:/devkitpro/devkitarm/bin/../lib/gcc/arm-none-eabi/4.9.2/../../../../arm-none-eabi/lib\libsysbase.a(malloc_vars.o)
 .comment       0x00000022       0x23 c:/devkitpro/devkitarm/bin/../lib/gcc/arm-none-eabi/4.9.2/../../../../arm-none-eabi/lib\libsysbase.a(build_argv.o)
 .comment       0x00000022       0x23 c:/devkitpro/devkitarm/bin/../lib/gcc/arm-none-eabi/4.9.2/../../../../arm-none-eabi/lib\libsysbase.a(syscall_support.o)
 .comment       0x00000022       0x23 c:/devkitpro/devkitarm/bin/../lib/gcc/arm-none-eabi/4.9.2/crtend.o

.ARM.attributes
                0x00000000       0x2d
 .ARM.attributes
                0x00000000       0x21 c:/devkitpro/devkitarm/bin/../lib/gcc/arm-none-eabi/4.9.2/../../../../arm-none-eabi/lib/ds_arm9_crt0.o
 .ARM.attributes
                0x00000021       0x16 c:/devkitpro/devkitarm/bin/../lib/gcc/arm-none-eabi/4.9.2/crti.o
 .ARM.attributes
                0x00000037       0x30 c:/devkitpro/devkitarm/bin/../lib/gcc/arm-none-eabi/4.9.2/crtbegin.o
 .ARM.attributes
                0x00000067       0x1b gfx_ball.o
 .ARM.attributes
                0x00000082       0x1b gfx_brick.o
 .ARM.attributes
                0x0000009d       0x1b gfx_gradient.o
 .ARM.attributes
                0x000000b8       0x2b ball.o
 .ARM.attributes
                0x000000e3       0x2b main.o
 .ARM.attributes
                0x0000010e       0x27 c:/devkitPro/libnds/lib\libnds9.a(keys.o)
 .ARM.attributes
                0x00000135       0x27 c:/devkitPro/libnds/lib\libnds9.a(initSystem.o)
 .ARM.attributes
                0x0000015c       0x27 c:/devkitPro/libnds/lib\libnds9.a(fifosystem.o)
 .ARM.attributes
                0x00000183       0x27 c:/devkitPro/libnds/lib\libnds9.a(libnds_exit.arm.o)
 .ARM.attributes
                0x000001aa       0x27 c:/devkitPro/libnds/lib\libnds9.a(interrupts.o)
 .ARM.attributes
                0x000001d1       0x21 c:/devkitPro/libnds/lib\libnds9.a(mpu_setup.o)
 .ARM.attributes
                0x000001f2       0x21 c:/devkitPro/libnds/lib\libnds9.a(swiSoftReset.o)
 .ARM.attributes
                0x00000213       0x1b c:/devkitPro/libnds/lib\libnds9.a(biosCalls.o)
 .ARM.attributes
                0x0000022e       0x1b c:/devkitPro/libnds/lib\libnds9.a(interruptDispatcher.o)
 .ARM.attributes
                0x00000249       0x27 c:/devkitPro/libnds/lib\libnds9.a(system.o)
 .ARM.attributes
                0x00000270       0x27 c:/devkitPro/libnds/lib\libnds9.a(video.o)
 .ARM.attributes
                0x00000297       0x27 c:/devkitPro/libnds/lib\libnds9.a(timeSupport.o)
 .ARM.attributes
                0x000002be       0x18 c:/devkitpro/devkitarm/bin/../lib/gcc/arm-none-eabi/4.9.2\libgcc.a(_divsi3.o)
 .ARM.attributes
                0x000002d6       0x18 c:/devkitpro/devkitarm/bin/../lib/gcc/arm-none-eabi/4.9.2\libgcc.a(_dvmd_tls.o)
 .ARM.attributes
                0x000002ee       0x30 c:/devkitpro/devkitarm/bin/../lib/gcc/arm-none-eabi/4.9.2/../../../../arm-none-eabi/lib\libg.a(lib_a-init.o)
 .ARM.attributes
                0x0000031e       0x30 c:/devkitpro/devkitarm/bin/../lib/gcc/arm-none-eabi/4.9.2/../../../../arm-none-eabi/lib\libg.a(lib_a-memcpy.o)
 .ARM.attributes
                0x0000034e       0x30 c:/devkitpro/devkitarm/bin/../lib/gcc/arm-none-eabi/4.9.2/../../../../arm-none-eabi/lib\libg.a(lib_a-memset.o)
 .ARM.attributes
                0x0000037e       0x30 c:/devkitpro/devkitarm/bin/../lib/gcc/arm-none-eabi/4.9.2/../../../../arm-none-eabi/lib\libsysbase.a(malloc_vars.o)
 .ARM.attributes
                0x000003ae       0x30 c:/devkitpro/devkitarm/bin/../lib/gcc/arm-none-eabi/4.9.2/../../../../arm-none-eabi/lib\libsysbase.a(build_argv.o)
 .ARM.attributes
                0x000003de       0x30 c:/devkitpro/devkitarm/bin/../lib/gcc/arm-none-eabi/4.9.2/../../../../arm-none-eabi/lib\libsysbase.a(syscall_support.o)
 .ARM.attributes
                0x0000040e       0x30 c:/devkitpro/devkitarm/bin/../lib/gcc/arm-none-eabi/4.9.2/crtend.o
 .ARM.attributes
                0x0000043e       0x18 c:/devkitpro/devkitarm/bin/../lib/gcc/arm-none-eabi/4.9.2/crtn.o

.debug
 *(.debug)

.line
 *(.line)

.debug_srcinfo
 *(.debug_srcinfo)

.debug_sfnames
 *(.debug_sfnames)

.debug_aranges  0x00000000      0x1c8
 *(.debug_aranges)
 .debug_aranges
                0x00000000       0x20 ball.o
 .debug_aranges
                0x00000020       0x28 main.o
 .debug_aranges
                0x00000048       0x20 c:/devkitPro/libnds/lib\libnds9.a(keys.o)
 .debug_aranges
                0x00000068       0x20 c:/devkitPro/libnds/lib\libnds9.a(initSystem.o)
 .debug_aranges
                0x00000088       0x20 c:/devkitPro/libnds/lib\libnds9.a(fifosystem.o)
 .debug_aranges
                0x000000a8       0x20 c:/devkitPro/libnds/lib\libnds9.a(libnds_exit.arm.o)
 .debug_aranges
                0x000000c8       0x20 c:/devkitPro/libnds/lib\libnds9.a(interrupts.o)
 .debug_aranges
                0x000000e8       0x20 c:/devkitPro/libnds/lib\libnds9.a(mpu_setup.o)
 .debug_aranges
                0x00000108       0x20 c:/devkitPro/libnds/lib\libnds9.a(swiSoftReset.o)
 .debug_aranges
                0x00000128       0x20 c:/devkitPro/libnds/lib\libnds9.a(biosCalls.o)
 .debug_aranges
                0x00000148       0x20 c:/devkitPro/libnds/lib\libnds9.a(interruptDispatcher.o)
 .debug_aranges
                0x00000168       0x20 c:/devkitPro/libnds/lib\libnds9.a(system.o)
 .debug_aranges
                0x00000188       0x20 c:/devkitPro/libnds/lib\libnds9.a(video.o)
 .debug_aranges
                0x000001a8       0x20 c:/devkitPro/libnds/lib\libnds9.a(timeSupport.o)

.debug_pubnames
 *(.debug_pubnames)

.debug_info     0x00000000     0x67eb
 *(.debug_info)
 .debug_info    0x00000000      0xb72 ball.o
 .debug_info    0x00000b72     0x1466 main.o
 .debug_info    0x00001fd8      0x414 c:/devkitPro/libnds/lib\libnds9.a(keys.o)
 .debug_info    0x000023ec     0x10eb c:/devkitPro/libnds/lib\libnds9.a(initSystem.o)
 .debug_info    0x000034d7     0x1597 c:/devkitPro/libnds/lib\libnds9.a(fifosystem.o)
 .debug_info    0x00004a6e      0x327 c:/devkitPro/libnds/lib\libnds9.a(libnds_exit.arm.o)
 .debug_info    0x00004d95      0x5ac c:/devkitPro/libnds/lib\libnds9.a(interrupts.o)
 .debug_info    0x00005341       0xd0 c:/devkitPro/libnds/lib\libnds9.a(mpu_setup.o)
 .debug_info    0x00005411       0xce c:/devkitPro/libnds/lib\libnds9.a(swiSoftReset.o)
 .debug_info    0x000054df       0xcb c:/devkitPro/libnds/lib\libnds9.a(biosCalls.o)
 .debug_info    0x000055aa       0xd5 c:/devkitPro/libnds/lib\libnds9.a(interruptDispatcher.o)
 .debug_info    0x0000567f      0x8f6 c:/devkitPro/libnds/lib\libnds9.a(system.o)
 .debug_info    0x00005f75      0x730 c:/devkitPro/libnds/lib\libnds9.a(video.o)
 .debug_info    0x000066a5      0x146 c:/devkitPro/libnds/lib\libnds9.a(timeSupport.o)

.debug_abbrev   0x00000000     0x181a
 *(.debug_abbrev)
 .debug_abbrev  0x00000000      0x26a ball.o
 .debug_abbrev  0x0000026a      0x3fc main.o
 .debug_abbrev  0x00000666      0x16b c:/devkitPro/libnds/lib\libnds9.a(keys.o)
 .debug_abbrev  0x000007d1      0x303 c:/devkitPro/libnds/lib\libnds9.a(initSystem.o)
 .debug_abbrev  0x00000ad4      0x464 c:/devkitPro/libnds/lib\libnds9.a(fifosystem.o)
 .debug_abbrev  0x00000f38      0x175 c:/devkitPro/libnds/lib\libnds9.a(libnds_exit.arm.o)
 .debug_abbrev  0x000010ad      0x239 c:/devkitPro/libnds/lib\libnds9.a(interrupts.o)
 .debug_abbrev  0x000012e6       0x14 c:/devkitPro/libnds/lib\libnds9.a(mpu_setup.o)
 .debug_abbrev  0x000012fa       0x14 c:/devkitPro/libnds/lib\libnds9.a(swiSoftReset.o)
 .debug_abbrev  0x0000130e       0x14 c:/devkitPro/libnds/lib\libnds9.a(biosCalls.o)
 .debug_abbrev  0x00001322       0x14 c:/devkitPro/libnds/lib\libnds9.a(interruptDispatcher.o)
 .debug_abbrev  0x00001336      0x250 c:/devkitPro/libnds/lib\libnds9.a(system.o)
 .debug_abbrev  0x00001586      0x1d7 c:/devkitPro/libnds/lib\libnds9.a(video.o)
 .debug_abbrev  0x0000175d       0xbd c:/devkitPro/libnds/lib\libnds9.a(timeSupport.o)

.debug_line     0x00000000     0x201b
 *(.debug_line)
 .debug_line    0x00000000      0x1ef ball.o
 .debug_line    0x000001ef      0x3bd main.o
 .debug_line    0x000005ac      0x25b c:/devkitPro/libnds/lib\libnds9.a(keys.o)
 .debug_line    0x00000807      0x3a5 c:/devkitPro/libnds/lib\libnds9.a(initSystem.o)
 .debug_line    0x00000bac      0x6b1 c:/devkitPro/libnds/lib\libnds9.a(fifosystem.o)
 .debug_line    0x0000125d      0x1ea c:/devkitPro/libnds/lib\libnds9.a(libnds_exit.arm.o)
 .debug_line    0x00001447      0x29f c:/devkitPro/libnds/lib\libnds9.a(interrupts.o)
 .debug_line    0x000016e6      0x107 c:/devkitPro/libnds/lib\libnds9.a(mpu_setup.o)
 .debug_line    0x000017ed       0x9d c:/devkitPro/libnds/lib\libnds9.a(swiSoftReset.o)
 .debug_line    0x0000188a       0xc9 c:/devkitPro/libnds/lib\libnds9.a(biosCalls.o)
 .debug_line    0x00001953       0xcd c:/devkitPro/libnds/lib\libnds9.a(interruptDispatcher.o)
 .debug_line    0x00001a20      0x2a5 c:/devkitPro/libnds/lib\libnds9.a(system.o)
 .debug_line    0x00001cc5      0x278 c:/devkitPro/libnds/lib\libnds9.a(video.o)
 .debug_line    0x00001f3d       0xde c:/devkitPro/libnds/lib\libnds9.a(timeSupport.o)

.debug_frame    0x00000000      0x714
 *(.debug_frame)
 .debug_frame   0x00000000       0x3c ball.o
 .debug_frame   0x0000003c       0xdc main.o
 .debug_frame   0x00000118       0x8c c:/devkitPro/libnds/lib\libnds9.a(keys.o)
 .debug_frame   0x000001a4       0x28 c:/devkitPro/libnds/lib\libnds9.a(initSystem.o)
 .debug_frame   0x000001cc      0x2bc c:/devkitPro/libnds/lib\libnds9.a(fifosystem.o)
 .debug_frame   0x00000488       0x3c c:/devkitPro/libnds/lib\libnds9.a(libnds_exit.arm.o)
 .debug_frame   0x000004c4       0xac c:/devkitPro/libnds/lib\libnds9.a(interrupts.o)
 .debug_frame   0x00000570       0xc8 c:/devkitPro/libnds/lib\libnds9.a(system.o)
 .debug_frame   0x00000638       0xbc c:/devkitPro/libnds/lib\libnds9.a(video.o)
 .debug_frame   0x000006f4       0x20 c:/devkitPro/libnds/lib\libnds9.a(timeSupport.o)

.debug_str      0x00000000     0x2a05
 *(.debug_str)
 .debug_str     0x00000000      0x76b ball.o
                                0x80e (size before relaxing)
 .debug_str     0x0000076b      0x673 main.o
                                0xe35 (size before relaxing)
 .debug_str     0x00000dde      0x1e9 c:/devkitPro/libnds/lib\libnds9.a(keys.o)
                                0x392 (size before relaxing)
 .debug_str     0x00000fc7      0x753 c:/devkitPro/libnds/lib\libnds9.a(initSystem.o)
                                0xbd3 (size before relaxing)
 .debug_str     0x0000171a      0x503 c:/devkitPro/libnds/lib\libnds9.a(fifosystem.o)
                                0x832 (size before relaxing)
 .debug_str     0x00001c1d      0x1bc c:/devkitPro/libnds/lib\libnds9.a(libnds_exit.arm.o)
                                0x35f (size before relaxing)
 .debug_str     0x00001dd9      0x114 c:/devkitPro/libnds/lib\libnds9.a(interrupts.o)
                                0x41b (size before relaxing)
 .debug_str     0x00001eed      0x2aa c:/devkitPro/libnds/lib\libnds9.a(system.o)
                                0x68c (size before relaxing)
 .debug_str     0x00002197      0x7fc c:/devkitPro/libnds/lib\libnds9.a(video.o)
                                0xbe1 (size before relaxing)
 .debug_str     0x00002993       0x72 c:/devkitPro/libnds/lib\libnds9.a(timeSupport.o)
                                0x1d0 (size before relaxing)

.debug_loc      0x00000000     0x1c3a
 *(.debug_loc)
 .debug_loc     0x00000000      0x1c5 ball.o
 .debug_loc     0x000001c5      0x332 main.o
 .debug_loc     0x000004f7       0x1f c:/devkitPro/libnds/lib\libnds9.a(initSystem.o)
 .debug_loc     0x00000516     0x1128 c:/devkitPro/libnds/lib\libnds9.a(fifosystem.o)
 .debug_loc     0x0000163e       0x58 c:/devkitPro/libnds/lib\libnds9.a(libnds_exit.arm.o)
 .debug_loc     0x00001696      0x16a c:/devkitPro/libnds/lib\libnds9.a(interrupts.o)
 .debug_loc     0x00001800      0x1ee c:/devkitPro/libnds/lib\libnds9.a(system.o)
 .debug_loc     0x000019ee      0x22b c:/devkitPro/libnds/lib\libnds9.a(video.o)
 .debug_loc     0x00001c19       0x21 c:/devkitPro/libnds/lib\libnds9.a(timeSupport.o)

.debug_macinfo
 *(.debug_macinfo)

.debug_weaknames
 *(.debug_weaknames)

.debug_funcnames
 *(.debug_funcnames)

.debug_typenames
 *(.debug_typenames)

.debug_varnames
 *(.debug_varnames)

.stack          0x00080000        0x0
                0x00080000                _stack = .
 *(.stack)
LOAD c:/devkitpro/devkitarm/bin/../lib/gcc/arm-none-eabi/4.9.2/../../../../arm-none-eabi/lib/ds_arm9_crt0.o
LOAD c:/devkitpro/devkitarm/bin/../lib/gcc/arm-none-eabi/4.9.2/crti.o
LOAD c:/devkitpro/devkitarm/bin/../lib/gcc/arm-none-eabi/4.9.2/crtbegin.o
LOAD gfx_ball.o
LOAD gfx_brick.o
LOAD gfx_gradient.o
LOAD ball.o
LOAD main.o
LOAD c:/devkitPro/libnds/lib\libnds9.a
START GROUP
LOAD c:/devkitpro/devkitarm/bin/../lib/gcc/arm-none-eabi/4.9.2\libgcc.a
LOAD c:/devkitpro/devkitarm/bin/../lib/gcc/arm-none-eabi/4.9.2/../../../../arm-none-eabi/lib\libg.a
LOAD c:/devkitpro/devkitarm/bin/../lib/gcc/arm-none-eabi/4.9.2/../../../../arm-none-eabi/lib\libc.a
LOAD c:/devkitpro/devkitarm/bin/../lib/gcc/arm-none-eabi/4.9.2/../../../../arm-none-eabi/lib\libsysbase.a
END GROUP
LOAD c:/devkitpro/devkitarm/bin/../lib/gcc/arm-none-eabi/4.9.2/crtend.o
LOAD c:/devkitpro/devkitarm/bin/../lib/gcc/arm-none-eabi/4.9.2/crtn.o
OUTPUT(c:/PFC/Codigo/BouncingBall/BouncingBall.elf elf32-littlearm)

.debug_ranges   0x00000000      0x5d0
 .debug_ranges  0x00000000       0x18 ball.o
 .debug_ranges  0x00000018      0x170 main.o
 .debug_ranges  0x00000188      0x340 c:/devkitPro/libnds/lib\libnds9.a(fifosystem.o)
 .debug_ranges  0x000004c8       0xc0 c:/devkitPro/libnds/lib\libnds9.a(interrupts.o)
 .debug_ranges  0x00000588       0x48 c:/devkitPro/libnds/lib\libnds9.a(video.o)
